target datalayout = "e-m:e-p270:32:32-p271:32:32-p272:64:64-i64:64-i128:128-f80:128-n8:16:32:64-S128"
target triple = "x86_64-unknown-linux-gnu"

%class.rewriter_tpl = type { %class.rewriter_core, ptr, i32, %class.ptr_vector.1, %class.var_shifter, %class.inv_var_shifter, %class.obj_ref, %class.obj_ref.10, %class.obj_ref.10, %class.svector.11 }
%class.rewriter_core = type { ptr, ptr, i8, i8, %class.ptr_vector, ptr, %class.svector, %class.ref_vector, %class.ptr_vector, ptr, %class.ref_vector.3, %class.obj_hashtable, ptr, i32, %class.svector.8 }
%class.svector = type { %class.vector.0 }
%class.vector.0 = type { ptr }
%class.ref_vector = type { %class.ref_vector_core }
%class.ref_vector_core = type { %class.ref_manager_wrapper, %class.ptr_vector.1 }
%class.ref_manager_wrapper = type { ptr }
%class.ptr_vector = type { %class.vector }
%class.vector = type { ptr }
%class.ref_vector.3 = type { %class.ref_vector_core.4 }
%class.ref_vector_core.4 = type { %class.ref_manager_wrapper.5, %class.ptr_vector.6 }
%class.ref_manager_wrapper.5 = type { ptr }
%class.ptr_vector.6 = type { %class.vector.7 }
%class.vector.7 = type { ptr }
%class.obj_hashtable = type { %class.core_hashtable.base, [4 x i8] }
%class.core_hashtable.base = type <{ ptr, i32, i32, i32 }>
%class.svector.8 = type { %class.vector.9 }
%class.vector.9 = type { ptr }
%class.ptr_vector.1 = type { %class.vector.2 }
%class.vector.2 = type { ptr }
%class.var_shifter = type <{ %class.var_shifter_core, i32, i32, i32, [4 x i8] }>
%class.var_shifter_core = type { %class.rewriter_core }
%class.inv_var_shifter = type <{ %class.var_shifter_core, i32, [4 x i8] }>
%class.obj_ref = type { ptr, ptr }
%class.obj_ref.10 = type { ptr, ptr }
%class.svector.11 = type { %class.vector.12 }
%class.vector.12 = type { ptr }
%class.ast = type { i32, i24, i32, i32 }

; Function Attrs: mustprogress uwtable
define linkonce_odr hidden void @_ZN6vectorIP4exprLb0EjE11free_memoryEv(ptr noundef nonnull align 8 dereferenceable(8) %this) #4 comdat align 2 {
entry:
  %this.addr = alloca ptr, align 8
  store ptr %this, ptr %this.addr, align 8
  %this1 = load ptr, ptr %this.addr, align 8
  %m_data = getelementptr inbounds %class.vector.2, ptr %this1, i32 0, i32 0
  %0 = load ptr, ptr %m_data, align 8
  %add.ptr = getelementptr inbounds i32, ptr %0, i64 -2
  call void @_ZN6memory10deallocateEPv(ptr noundef %add.ptr)
  ret void
}

; Function Attrs: mustprogress nounwind uwtable
define linkonce_odr hidden noundef i32 @_ZNK3ast13get_ref_countEv(ptr noundef nonnull align 4 dereferenceable(16) %this) #5 comdat align 2 {
entry:
  %this.addr = alloca ptr, align 8
  store ptr %this, ptr %this.addr, align 8
  %this1 = load ptr, ptr %this.addr, align 8
  %m_ref_count = getelementptr inbounds %class.ast, ptr %this1, i32 0, i32 2
  %0 = load i32, ptr %m_ref_count, align 4
  ret i32 %0
}

; Function Attrs: mustprogress nounwind uwtable
define linkonce_odr hidden void @_ZN3ast7dec_refEv(ptr noundef nonnull align 4 dereferenceable(16) %this) #5 comdat align 2 {
entry:
  %this.addr = alloca ptr, align 8
  store ptr %this, ptr %this.addr, align 8
  %this1 = load ptr, ptr %this.addr, align 8
  %m_ref_count = getelementptr inbounds %class.ast, ptr %this1, i32 0, i32 2
  %0 = load i32, ptr %m_ref_count, align 4
  %dec = add i32 %0, -1
  store i32 %dec, ptr %m_ref_count, align 4
  ret void
}

; Function Attrs: mustprogress uwtable
define linkonce_odr hidden void @_ZN6vectorIjLb0EjE11free_memoryEv(ptr noundef nonnull align 8 dereferenceable(8) %this) #4 comdat align 2 {
entry:
  %this.addr = alloca ptr, align 8
  store ptr %this, ptr %this.addr, align 8
  %this1 = load ptr, ptr %this.addr, align 8
  %m_data = getelementptr inbounds %class.vector.12, ptr %this1, i32 0, i32 0
  %0 = load ptr, ptr %m_data, align 8
  %add.ptr = getelementptr inbounds i32, ptr %0, i64 -2
  call void @_ZN6memory10deallocateEPv(ptr noundef %add.ptr)
  ret void
}

; Function Attrs: mustprogress uwtable
define linkonce_odr hidden void @_ZN6vectorIP4exprLb0EjE7destroyEv(ptr noundef nonnull align 8 dereferenceable(8) %this) #4 comdat align 2 {
entry:
  %this.addr = alloca ptr, align 8
  store ptr %this, ptr %this.addr, align 8
  %this1 = load ptr, ptr %this.addr, align 8
  %m_data = getelementptr inbounds %class.vector.2, ptr %this1, i32 0, i32 0
  %0 = load ptr, ptr %m_data, align 8
  %tobool = icmp ne ptr %0, null
  br i1 %tobool, label %if.then, label %if.end

if.then:                                          ; preds = %entry
  call void @_ZN6vectorIP4exprLb0EjE11free_memoryEv(ptr noundef nonnull align 8 dereferenceable(8) %this1)
  br label %if.end

if.end:                                           ; preds = %if.then, %entry
  ret void
}

; Function Attrs: mustprogress uwtable
define linkonce_odr hidden void @_ZN11ast_manager7dec_refEP3ast(ptr noundef nonnull align 8 dereferenceable(976) %this, ptr noundef %n) #4 comdat align 2 {
entry:
  %this.addr = alloca ptr, align 8
  %n.addr = alloca ptr, align 8
  store ptr %this, ptr %this.addr, align 8
  store ptr %n, ptr %n.addr, align 8
  %this1 = load ptr, ptr %this.addr, align 8
  %0 = load ptr, ptr %n.addr, align 8
  %tobool = icmp ne ptr %0, null
  br i1 %tobool, label %if.then, label %if.end3

if.then:                                          ; preds = %entry
  %1 = load ptr, ptr %n.addr, align 8
  call void @_ZN3ast7dec_refEv(ptr noundef nonnull align 4 dereferenceable(16) %1)
  %2 = load ptr, ptr %n.addr, align 8
  %call = call noundef i32 @_ZNK3ast13get_ref_countEv(ptr noundef nonnull align 4 dereferenceable(16) %2)
  %cmp = icmp eq i32 %call, 0
  br i1 %cmp, label %if.then2, label %if.end

if.then2:                                         ; preds = %if.then
  %3 = load ptr, ptr %n.addr, align 8
  call void @_ZN11ast_manager11delete_nodeEP3ast(ptr noundef nonnull align 8 dereferenceable(976) %this1, ptr noundef %3)
  br label %if.end

if.end:                                           ; preds = %if.then2, %if.then
  br label %if.end3

if.end3:                                          ; preds = %if.end, %entry
  ret void
}

; Function Attrs: mustprogress uwtable
define linkonce_odr hidden void @_ZN6vectorIjLb0EjE7destroyEv(ptr noundef nonnull align 8 dereferenceable(8) %this) #4 comdat align 2 {
entry:
  %this.addr = alloca ptr, align 8
  store ptr %this, ptr %this.addr, align 8
  %this1 = load ptr, ptr %this.addr, align 8
  %m_data = getelementptr inbounds %class.vector.12, ptr %this1, i32 0, i32 0
  %0 = load ptr, ptr %m_data, align 8
  %tobool = icmp ne ptr %0, null
  br i1 %tobool, label %if.then, label %if.end

if.then:                                          ; preds = %entry
  call void @_ZN6vectorIjLb0EjE11free_memoryEv(ptr noundef nonnull align 8 dereferenceable(8) %this1)
  br label %if.end

if.end:                                           ; preds = %if.then, %entry
  ret void
}

; Function Attrs: mustprogress nounwind uwtable
define linkonce_odr hidden void @_ZN6vectorIP4exprLb0EjED2Ev(ptr noundef nonnull align 8 dereferenceable(8) %this) unnamed_addr #5 comdat align 2 personality ptr @__gxx_personality_v0 {
entry:
  %this.addr = alloca ptr, align 8
  store ptr %this, ptr %this.addr, align 8
  %this1 = load ptr, ptr %this.addr, align 8
  invoke void @_ZN6vectorIP4exprLb0EjE7destroyEv(ptr noundef nonnull align 8 dereferenceable(8) %this1)
          to label %invoke.cont unwind label %terminate.lpad

invoke.cont:                                      ; preds = %entry
  ret void

terminate.lpad:                                   ; preds = %entry
  %0 = landingpad { ptr, i32 }
          catch ptr null
  %1 = extractvalue { ptr, i32 } %0, 0
  call void @__clang_call_terminate(ptr %1) #14
  unreachable
}

; Function Attrs: mustprogress nounwind uwtable
define linkonce_odr hidden void @_ZN16var_shifter_coreD2Ev(ptr noundef nonnull align 8 dereferenceable(144) %this) unnamed_addr #5 comdat align 2 {
entry:
  %this.addr = alloca ptr, align 8
  store ptr %this, ptr %this.addr, align 8
  %this1 = load ptr, ptr %this.addr, align 8
  call void @_ZN13rewriter_coreD2Ev(ptr noundef nonnull align 8 dereferenceable(144) %this1) #3
  ret void
}

; Function Attrs: mustprogress uwtable
define linkonce_odr hidden void @_ZN7obj_refI4expr11ast_managerE7dec_refEv(ptr noundef nonnull align 8 dereferenceable(16) %this) #4 comdat align 2 {
entry:
  %this.addr = alloca ptr, align 8
  store ptr %this, ptr %this.addr, align 8
  %this1 = load ptr, ptr %this.addr, align 8
  %m_obj = getelementptr inbounds %class.obj_ref, ptr %this1, i32 0, i32 0
  %0 = load ptr, ptr %m_obj, align 8
  %tobool = icmp ne ptr %0, null
  br i1 %tobool, label %if.then, label %if.end

if.then:                                          ; preds = %entry
  %m_manager = getelementptr inbounds %class.obj_ref, ptr %this1, i32 0, i32 1
  %1 = load ptr, ptr %m_manager, align 8
  %m_obj2 = getelementptr inbounds %class.obj_ref, ptr %this1, i32 0, i32 0
  %2 = load ptr, ptr %m_obj2, align 8
  call void @_ZN11ast_manager7dec_refEP3ast(ptr noundef nonnull align 8 dereferenceable(976) %1, ptr noundef %2)
  br label %if.end

if.end:                                           ; preds = %if.then, %entry
  ret void
}

; Function Attrs: mustprogress uwtable
define linkonce_odr hidden void @_ZN7obj_refI3app11ast_managerE7dec_refEv(ptr noundef nonnull align 8 dereferenceable(16) %this) #4 comdat align 2 {
entry:
  %this.addr = alloca ptr, align 8
  store ptr %this, ptr %this.addr, align 8
  %this1 = load ptr, ptr %this.addr, align 8
  %m_obj = getelementptr inbounds %class.obj_ref.10, ptr %this1, i32 0, i32 0
  %0 = load ptr, ptr %m_obj, align 8
  %tobool = icmp ne ptr %0, null
  br i1 %tobool, label %if.then, label %if.end

if.then:                                          ; preds = %entry
  %m_manager = getelementptr inbounds %class.obj_ref.10, ptr %this1, i32 0, i32 1
  %1 = load ptr, ptr %m_manager, align 8
  %m_obj2 = getelementptr inbounds %class.obj_ref.10, ptr %this1, i32 0, i32 0
  %2 = load ptr, ptr %m_obj2, align 8
  call void @_ZN11ast_manager7dec_refEP3ast(ptr noundef nonnull align 8 dereferenceable(976) %1, ptr noundef %2)
  br label %if.end

if.end:                                           ; preds = %if.then, %entry
  ret void
}

; Function Attrs: mustprogress nounwind uwtable
define linkonce_odr hidden void @_ZN6vectorIjLb0EjED2Ev(ptr noundef nonnull align 8 dereferenceable(8) %this) unnamed_addr #5 comdat align 2 personality ptr @__gxx_personality_v0 {
entry:
  %this.addr = alloca ptr, align 8
  store ptr %this, ptr %this.addr, align 8
  %this1 = load ptr, ptr %this.addr, align 8
  invoke void @_ZN6vectorIjLb0EjE7destroyEv(ptr noundef nonnull align 8 dereferenceable(8) %this1)
          to label %invoke.cont unwind label %terminate.lpad

invoke.cont:                                      ; preds = %entry
  ret void

terminate.lpad:                                   ; preds = %entry
  %0 = landingpad { ptr, i32 }
          catch ptr null
  %1 = extractvalue { ptr, i32 } %0, 0
  call void @__clang_call_terminate(ptr %1) #14
  unreachable
}

; Function Attrs: mustprogress nounwind uwtable
define linkonce_odr hidden void @_ZN10ptr_vectorI4exprED2Ev(ptr noundef nonnull align 8 dereferenceable(8) %this) unnamed_addr #5 comdat align 2 {
entry:
  %this.addr = alloca ptr, align 8
  store ptr %this, ptr %this.addr, align 8
  %this1 = load ptr, ptr %this.addr, align 8
  call void @_ZN6vectorIP4exprLb0EjED2Ev(ptr noundef nonnull align 8 dereferenceable(8) %this1) #3
  ret void
}

; Function Attrs: mustprogress nounwind uwtable
define linkonce_odr hidden void @_ZN11var_shifterD2Ev(ptr noundef nonnull align 8 dereferenceable(156) %this) unnamed_addr #5 comdat align 2 {
entry:
  %this.addr = alloca ptr, align 8
  store ptr %this, ptr %this.addr, align 8
  %this1 = load ptr, ptr %this.addr, align 8
  call void @_ZN16var_shifter_coreD2Ev(ptr noundef nonnull align 8 dereferenceable(144) %this1) #3
  ret void
}

; Function Attrs: mustprogress nounwind uwtable
define linkonce_odr hidden void @_ZN15inv_var_shifterD2Ev(ptr noundef nonnull align 8 dereferenceable(148) %this) unnamed_addr #5 comdat align 2 {
entry:
  %this.addr = alloca ptr, align 8
  store ptr %this, ptr %this.addr, align 8
  %this1 = load ptr, ptr %this.addr, align 8
  call void @_ZN16var_shifter_coreD2Ev(ptr noundef nonnull align 8 dereferenceable(144) %this1) #3
  ret void
}

; Function Attrs: mustprogress nounwind uwtable
define linkonce_odr hidden void @_ZN7obj_refI4expr11ast_managerED2Ev(ptr noundef nonnull align 8 dereferenceable(16) %this) unnamed_addr #5 comdat align 2 personality ptr @__gxx_personality_v0 {
entry:
  %this.addr = alloca ptr, align 8
  store ptr %this, ptr %this.addr, align 8
  %this1 = load ptr, ptr %this.addr, align 8
  invoke void @_ZN7obj_refI4expr11ast_managerE7dec_refEv(ptr noundef nonnull align 8 dereferenceable(16) %this1)
          to label %invoke.cont unwind label %terminate.lpad

invoke.cont:                                      ; preds = %entry
  ret void

terminate.lpad:                                   ; preds = %entry
  %0 = landingpad { ptr, i32 }
          catch ptr null
  %1 = extractvalue { ptr, i32 } %0, 0
  call void @__clang_call_terminate(ptr %1) #14
  unreachable
}

; Function Attrs: mustprogress nounwind uwtable
define linkonce_odr hidden void @_ZN7obj_refI3app11ast_managerED2Ev(ptr noundef nonnull align 8 dereferenceable(16) %this) unnamed_addr #5 comdat align 2 personality ptr @__gxx_personality_v0 {
entry:
  %this.addr = alloca ptr, align 8
  store ptr %this, ptr %this.addr, align 8
  %this1 = load ptr, ptr %this.addr, align 8
  invoke void @_ZN7obj_refI3app11ast_managerE7dec_refEv(ptr noundef nonnull align 8 dereferenceable(16) %this1)
          to label %invoke.cont unwind label %terminate.lpad

invoke.cont:                                      ; preds = %entry
  ret void

terminate.lpad:                                   ; preds = %entry
  %0 = landingpad { ptr, i32 }
          catch ptr null
  %1 = extractvalue { ptr, i32 } %0, 0
  call void @__clang_call_terminate(ptr %1) #14
  unreachable
}

; Function Attrs: mustprogress nounwind uwtable
define linkonce_odr hidden void @_ZN7svectorIjjED2Ev(ptr noundef nonnull align 8 dereferenceable(8) %this) unnamed_addr #5 comdat align 2 {
entry:
  %this.addr = alloca ptr, align 8
  store ptr %this, ptr %this.addr, align 8
  %this1 = load ptr, ptr %this.addr, align 8
  call void @_ZN6vectorIjLb0EjED2Ev(ptr noundef nonnull align 8 dereferenceable(8) %this1) #3
  ret void
}

; Function Attrs: mustprogress nounwind uwtable
define internal void @_ZN12rewriter_tplIN12_GLOBAL__N_115th_rewriter_cfgEED2Ev(ptr noundef nonnull align 8 dereferenceable(536) %this) unnamed_addr #5 align 2 {
entry:
  %this.addr = alloca ptr, align 8
  store ptr %this, ptr %this.addr, align 8
  %this1 = load ptr, ptr %this.addr, align 8
  store ptr getelementptr inbounds ({ [4 x ptr] }, ptr @_ZTV12rewriter_tplIN12_GLOBAL__N_115th_rewriter_cfgEE, i32 0, i32 0, i32 2), ptr %this1, align 8
  %m_shifts = getelementptr inbounds %class.rewriter_tpl, ptr %this1, i32 0, i32 9
  call void @_ZN7svectorIjjED2Ev(ptr noundef nonnull align 8 dereferenceable(8) %m_shifts) #3
  %m_pr2 = getelementptr inbounds %class.rewriter_tpl, ptr %this1, i32 0, i32 8
  call void @_ZN7obj_refI3app11ast_managerED2Ev(ptr noundef nonnull align 8 dereferenceable(16) %m_pr2) #3
  %m_pr = getelementptr inbounds %class.rewriter_tpl, ptr %this1, i32 0, i32 7
  call void @_ZN7obj_refI3app11ast_managerED2Ev(ptr noundef nonnull align 8 dereferenceable(16) %m_pr) #3
  %m_r = getelementptr inbounds %class.rewriter_tpl, ptr %this1, i32 0, i32 6
  call void @_ZN7obj_refI4expr11ast_managerED2Ev(ptr noundef nonnull align 8 dereferenceable(16) %m_r) #3
  %m_inv_shifter = getelementptr inbounds %class.rewriter_tpl, ptr %this1, i32 0, i32 5
  call void @_ZN15inv_var_shifterD2Ev(ptr noundef nonnull align 8 dereferenceable(148) %m_inv_shifter) #3
  %m_shifter = getelementptr inbounds %class.rewriter_tpl, ptr %this1, i32 0, i32 4
  call void @_ZN11var_shifterD2Ev(ptr noundef nonnull align 8 dereferenceable(156) %m_shifter) #3
  %m_bindings = getelementptr inbounds %class.rewriter_tpl, ptr %this1, i32 0, i32 3
  call void @_ZN10ptr_vectorI4exprED2Ev(ptr noundef nonnull align 8 dereferenceable(8) %m_bindings) #3
  call void @_ZN13rewriter_coreD2Ev(ptr noundef nonnull align 8 dereferenceable(144) %this1) #3
  ret void
}