; Function Attrs: mustprogress nounwind uwtable
define internal void @_ZN12rewriter_tplIN12_GLOBAL__N_115th_rewriter_cfgEED2Ev(ptr noundef nonnull align 8 dereferenceable(536) %this) unnamed_addr #6 align 2 personality ptr @__gxx_personality_v0 {
entry:
  store ptr getelementptr inbounds ({ [4 x ptr] }, ptr @_ZTV12rewriter_tplIN12_GLOBAL__N_115th_rewriter_cfgEE, i64 0, i32 0, i64 2), ptr %this, align 8
  %m_shifts = getelementptr inbounds i8, ptr %this, i64 528
  %0 = load ptr, ptr %m_shifts, align 8
  %tobool.not.i.i.i = icmp eq ptr %0, null
  br i1 %tobool.not.i.i.i, label %_ZN7svectorIjjED2Ev.exit, label %if.then.i.i.i

if.then.i.i.i:                                    ; preds = %entry
  %add.ptr.i.i.i.i = getelementptr inbounds i8, ptr %0, i64 -8
  invoke void @_ZN6memory10deallocateEPv(ptr noundef nonnull %add.ptr.i.i.i.i)
          to label %_ZN7svectorIjjED2Ev.exit unwind label %terminate.lpad.i.i

terminate.lpad.i.i:                               ; preds = %if.then.i.i.i
  %1 = landingpad { ptr, i32 }
          catch ptr null
  %2 = extractvalue { ptr, i32 } %1, 0
  tail call void @__clang_call_terminate(ptr %2) #19
  unreachable

_ZN7svectorIjjED2Ev.exit:                         ; preds = %entry, %if.then.i.i.i
  %m_pr2 = getelementptr inbounds i8, ptr %this, i64 512
  %3 = load ptr, ptr %m_pr2, align 8
  %tobool.not.i.i = icmp eq ptr %3, null
  br i1 %tobool.not.i.i, label %_ZN7obj_refI3app11ast_managerED2Ev.exit, label %if.then.i.i.i1

if.then.i.i.i1:                                   ; preds = %_ZN7svectorIjjED2Ev.exit
  %m_manager.i.i = getelementptr inbounds i8, ptr %this, i64 520
  %4 = load ptr, ptr %m_manager.i.i, align 8
  %m_ref_count.i.i.i.i = getelementptr inbounds i8, ptr %3, i64 8
  %5 = load i32, ptr %m_ref_count.i.i.i.i, align 4
  %dec.i.i.i.i = add i32 %5, -1
  store i32 %dec.i.i.i.i, ptr %m_ref_count.i.i.i.i, align 4
  %cmp.i.i.i = icmp eq i32 %dec.i.i.i.i, 0
  br i1 %cmp.i.i.i, label %if.then2.i.i.i, label %_ZN7obj_refI3app11ast_managerED2Ev.exit

if.then2.i.i.i:                                   ; preds = %if.then.i.i.i1
  invoke void @_ZN11ast_manager11delete_nodeEP3ast(ptr noundef nonnull align 8 dereferenceable(976) %4, ptr noundef nonnull %3)
          to label %_ZN7obj_refI3app11ast_managerED2Ev.exit unwind label %terminate.lpad.i

terminate.lpad.i:                                 ; preds = %if.then2.i.i.i
  %6 = landingpad { ptr, i32 }
          catch ptr null
  %7 = extractvalue { ptr, i32 } %6, 0
  tail call void @__clang_call_terminate(ptr %7) #19
  unreachable

_ZN7obj_refI3app11ast_managerED2Ev.exit:          ; preds = %_ZN7svectorIjjED2Ev.exit, %if.then.i.i.i1, %if.then2.i.i.i
  %m_pr = getelementptr inbounds i8, ptr %this, i64 496
  %8 = load ptr, ptr %m_pr, align 8
  %tobool.not.i.i2 = icmp eq ptr %8, null
  br i1 %tobool.not.i.i2, label %_ZN7obj_refI3app11ast_managerED2Ev.exit10, label %if.then.i.i.i3

if.then.i.i.i3:                                   ; preds = %_ZN7obj_refI3app11ast_managerED2Ev.exit
  %m_manager.i.i4 = getelementptr inbounds i8, ptr %this, i64 504
  %9 = load ptr, ptr %m_manager.i.i4, align 8
  %m_ref_count.i.i.i.i5 = getelementptr inbounds i8, ptr %8, i64 8
  %10 = load i32, ptr %m_ref_count.i.i.i.i5, align 4
  %dec.i.i.i.i6 = add i32 %10, -1
  store i32 %dec.i.i.i.i6, ptr %m_ref_count.i.i.i.i5, align 4
  %cmp.i.i.i7 = icmp eq i32 %dec.i.i.i.i6, 0
  br i1 %cmp.i.i.i7, label %if.then2.i.i.i8, label %_ZN7obj_refI3app11ast_managerED2Ev.exit10

if.then2.i.i.i8:                                  ; preds = %if.then.i.i.i3
  invoke void @_ZN11ast_manager11delete_nodeEP3ast(ptr noundef nonnull align 8 dereferenceable(976) %9, ptr noundef nonnull %8)
          to label %_ZN7obj_refI3app11ast_managerED2Ev.exit10 unwind label %terminate.lpad.i9

terminate.lpad.i9:                                ; preds = %if.then2.i.i.i8
  %11 = landingpad { ptr, i32 }
          catch ptr null
  %12 = extractvalue { ptr, i32 } %11, 0
  tail call void @__clang_call_terminate(ptr %12) #19
  unreachable

_ZN7obj_refI3app11ast_managerED2Ev.exit10:        ; preds = %_ZN7obj_refI3app11ast_managerED2Ev.exit, %if.then.i.i.i3, %if.then2.i.i.i8
  %m_r = getelementptr inbounds i8, ptr %this, i64 480
  %13 = load ptr, ptr %m_r, align 8
  %tobool.not.i.i11 = icmp eq ptr %13, null
  br i1 %tobool.not.i.i11, label %_ZN7obj_refI4expr11ast_managerED2Ev.exit, label %if.then.i.i.i12

if.then.i.i.i12:                                  ; preds = %_ZN7obj_refI3app11ast_managerED2Ev.exit10
  %m_manager.i.i13 = getelementptr inbounds i8, ptr %this, i64 488
  %14 = load ptr, ptr %m_manager.i.i13, align 8
  %m_ref_count.i.i.i.i14 = getelementptr inbounds i8, ptr %13, i64 8
  %15 = load i32, ptr %m_ref_count.i.i.i.i14, align 4
  %dec.i.i.i.i15 = add i32 %15, -1
  store i32 %dec.i.i.i.i15, ptr %m_ref_count.i.i.i.i14, align 4
  %cmp.i.i.i16 = icmp eq i32 %dec.i.i.i.i15, 0
  br i1 %cmp.i.i.i16, label %if.then2.i.i.i17, label %_ZN7obj_refI4expr11ast_managerED2Ev.exit

if.then2.i.i.i17:                                 ; preds = %if.then.i.i.i12
  invoke void @_ZN11ast_manager11delete_nodeEP3ast(ptr noundef nonnull align 8 dereferenceable(976) %14, ptr noundef nonnull %13)
          to label %_ZN7obj_refI4expr11ast_managerED2Ev.exit unwind label %terminate.lpad.i18

terminate.lpad.i18:                               ; preds = %if.then2.i.i.i17
  %16 = landingpad { ptr, i32 }
          catch ptr null
  %17 = extractvalue { ptr, i32 } %16, 0
  tail call void @__clang_call_terminate(ptr %17) #19
  unreachable

_ZN7obj_refI4expr11ast_managerED2Ev.exit:         ; preds = %_ZN7obj_refI3app11ast_managerED2Ev.exit10, %if.then.i.i.i12, %if.then2.i.i.i17
  %m_inv_shifter = getelementptr inbounds i8, ptr %this, i64 328
  tail call void @_ZN13rewriter_coreD2Ev(ptr noundef nonnull align 8 dereferenceable(144) %m_inv_shifter) #18
  %m_shifter = getelementptr inbounds i8, ptr %this, i64 168
  tail call void @_ZN13rewriter_coreD2Ev(ptr noundef nonnull align 8 dereferenceable(144) %m_shifter) #18
  %m_bindings = getelementptr inbounds i8, ptr %this, i64 160
  %18 = load ptr, ptr %m_bindings, align 8
  %tobool.not.i.i.i19 = icmp eq ptr %18, null
  br i1 %tobool.not.i.i.i19, label %_ZN10ptr_vectorI4exprED2Ev.exit, label %if.then.i.i.i20

if.then.i.i.i20:                                  ; preds = %_ZN7obj_refI4expr11ast_managerED2Ev.exit
  %add.ptr.i.i.i.i21 = getelementptr inbounds i8, ptr %18, i64 -8
  invoke void @_ZN6memory10deallocateEPv(ptr noundef nonnull %add.ptr.i.i.i.i21)
          to label %_ZN10ptr_vectorI4exprED2Ev.exit unwind label %terminate.lpad.i.i22

terminate.lpad.i.i22:                             ; preds = %if.then.i.i.i20
  %19 = landingpad { ptr, i32 }
          catch ptr null
  %20 = extractvalue { ptr, i32 } %19, 0
  tail call void @__clang_call_terminate(ptr %20) #19
  unreachable

_ZN10ptr_vectorI4exprED2Ev.exit:                  ; preds = %_ZN7obj_refI4expr11ast_managerED2Ev.exit, %if.then.i.i.i20
  tail call void @_ZN13rewriter_coreD2Ev(ptr noundef nonnull align 8 dereferenceable(144) %this) #18
  ret void
}